target datalayout = "e-m:e-p270:32:32-p271:32:32-p272:64:64-i64:64-i128:128-f80:128-n8:16:32:64-S128"
target triple = "x86_64-pc-linux-gnu"

%struct.AVFormatContext = type { ptr, ptr, ptr, ptr, ptr, i32, i32, ptr, i32, ptr, i32, ptr, ptr, i64, i64, i64, i32, i32, i32, i64, i64, ptr, i32, i32, ptr, i32, i32, i32, i32, ptr, i64, i32, i32, %struct.AVIOInterruptCB, i32, i32, i32, i32, i64, i32, i32, i32, i32, i32, i32, i32, i32, i32, i32, i32, i32, i64, i32, i32, i32, i32, i32, ptr, ptr, ptr, ptr, i32, ptr, ptr, ptr, ptr, i32, ptr, ptr, i64, ptr, ptr, ptr, i64 }
%struct.AVIOInterruptCB = type { ptr, ptr }
%struct.AVStream = type { ptr, i32, i32, ptr, ptr, %struct.AVRational, i64, i64, i64, i32, i32, %struct.AVRational, ptr, %struct.AVRational, %struct.AVPacket, i32, %struct.AVRational, i32 }
%struct.AVPacket = type { ptr, i64, i64, ptr, i32, i32, i32, ptr, i32, i64, i64, ptr, ptr, %struct.AVRational }
%struct.AVRational = type { i32, i32 }
%struct.AVCodecParameters = type { i32, i32, i32, ptr, i32, ptr, i32, i32, i64, i32, i32, i32, i32, i32, i32, %struct.AVRational, %struct.AVRational, i32, i32, i32, i32, i32, i32, i32, %struct.AVChannelLayout, i32, i32, i32, i32, i32, i32 }
%struct.AVChannelLayout = type { i32, i32, %union.anon, ptr }
%union.anon = type { i64 }

@.str.2 = private unnamed_addr constant [15 x i8] c"Stereo WS-SND1\00", align 1
@.str.3 = private unnamed_addr constant [18 x i8] c"Unknown codec: %d\00", align 1

; Function Attrs: nounwind uwtable
define internal i32 @wsaud_read_header(ptr noundef %0) #0 {
  %2 = alloca i32, align 4
  %3 = alloca ptr, align 8
  %4 = alloca ptr, align 8
  %5 = alloca ptr, align 8
  %6 = alloca [12 x i8], align 1
  %7 = alloca i32, align 4
  %8 = alloca i32, align 4
  %9 = alloca i32, align 4
  %10 = alloca i32, align 4
  store ptr %0, ptr %3, align 8, !tbaa !16
  call void @llvm.lifetime.start.p0(i64 8, ptr %4) #3
  %11 = load ptr, ptr %3, align 8, !tbaa !16
  %12 = getelementptr inbounds nuw %struct.AVFormatContext, ptr %11, i32 0, i32 4
  %13 = load ptr, ptr %12, align 8, !tbaa !18
  store ptr %13, ptr %4, align 8, !tbaa !33
  call void @llvm.lifetime.start.p0(i64 8, ptr %5) #3
  call void @llvm.lifetime.start.p0(i64 12, ptr %6) #3
  call void @llvm.lifetime.start.p0(i64 4, ptr %7) #3
  call void @llvm.lifetime.start.p0(i64 4, ptr %8) #3
  call void @llvm.lifetime.start.p0(i64 4, ptr %9) #3
  %14 = load ptr, ptr %4, align 8, !tbaa !33
  %15 = getelementptr inbounds [12 x i8], ptr %6, i64 0, i64 0
  %16 = call i32 @avio_read(ptr noundef %14, ptr noundef %15, i32 noundef 12)
  %17 = icmp ne i32 %16, 12
  br i1 %17, label %18, label %19

18:                                               ; preds = %1
  store i32 -5, ptr %2, align 4
  store i32 1, ptr %10, align 4
  br label %86

19:                                               ; preds = %1
  %20 = getelementptr inbounds [12 x i8], ptr %6, i64 0, i64 0
  %21 = load i16, ptr %20, align 1, !tbaa !14
  %22 = zext i16 %21 to i32
  store i32 %22, ptr %7, align 4, !tbaa !15
  %23 = getelementptr inbounds [12 x i8], ptr %6, i64 0, i64 10
  %24 = load i8, ptr %23, align 1, !tbaa !14
  %25 = zext i8 %24 to i32
  %26 = and i32 %25, 1
  %27 = add nsw i32 %26, 1
  store i32 %27, ptr %8, align 4, !tbaa !15
  %28 = getelementptr inbounds [12 x i8], ptr %6, i64 0, i64 11
  %29 = load i8, ptr %28, align 1, !tbaa !14
  %30 = zext i8 %29 to i32
  store i32 %30, ptr %9, align 4, !tbaa !15
  %31 = load ptr, ptr %3, align 8, !tbaa !16
  %32 = call ptr @avformat_new_stream(ptr noundef %31, ptr noundef null)
  store ptr %32, ptr %5, align 8, !tbaa !34
  %33 = load ptr, ptr %5, align 8, !tbaa !34
  %34 = icmp ne ptr %33, null
  br i1 %34, label %36, label %35

35:                                               ; preds = %19
  store i32 -12, ptr %2, align 4
  store i32 1, ptr %10, align 4
  br label %86

36:                                               ; preds = %19
  %37 = load i32, ptr %9, align 4, !tbaa !15
  switch i32 %37, label %66 [
    i32 1, label %38
    i32 99, label %48
  ]

38:                                               ; preds = %36
  %39 = load i32, ptr %8, align 4, !tbaa !15
  %40 = icmp ne i32 %39, 1
  br i1 %40, label %41, label %43

41:                                               ; preds = %38
  %42 = load ptr, ptr %3, align 8, !tbaa !16
  call void (ptr, ptr, ...) @avpriv_request_sample(ptr noundef %42, ptr noundef @.str.2)
  store i32 -1163346256, ptr %2, align 4
  store i32 1, ptr %10, align 4
  br label %86

43:                                               ; preds = %38
  %44 = load ptr, ptr %5, align 8, !tbaa !34
  %45 = getelementptr inbounds nuw %struct.AVStream, ptr %44, i32 0, i32 3
  %46 = load ptr, ptr %45, align 8, !tbaa !36
  %47 = getelementptr inbounds nuw %struct.AVCodecParameters, ptr %46, i32 0, i32 1
  store i32 86033, ptr %47, align 4, !tbaa !43
  br label %69

48:                                               ; preds = %36
  %49 = load ptr, ptr %5, align 8, !tbaa !34
  %50 = getelementptr inbounds nuw %struct.AVStream, ptr %49, i32 0, i32 3
  %51 = load ptr, ptr %50, align 8, !tbaa !36
  %52 = getelementptr inbounds nuw %struct.AVCodecParameters, ptr %51, i32 0, i32 1
  store i32 69636, ptr %52, align 4, !tbaa !43
  %53 = load ptr, ptr %5, align 8, !tbaa !34
  %54 = getelementptr inbounds nuw %struct.AVStream, ptr %53, i32 0, i32 3
  %55 = load ptr, ptr %54, align 8, !tbaa !36
  %56 = getelementptr inbounds nuw %struct.AVCodecParameters, ptr %55, i32 0, i32 9
  store i32 4, ptr %56, align 8, !tbaa !46
  %57 = load i32, ptr %8, align 4, !tbaa !15
  %58 = load i32, ptr %7, align 4, !tbaa !15
  %59 = mul nsw i32 %57, %58
  %60 = mul nsw i32 %59, 4
  %61 = sext i32 %60 to i64
  %62 = load ptr, ptr %5, align 8, !tbaa !34
  %63 = getelementptr inbounds nuw %struct.AVStream, ptr %62, i32 0, i32 3
  %64 = load ptr, ptr %63, align 8, !tbaa !36
  %65 = getelementptr inbounds nuw %struct.AVCodecParameters, ptr %64, i32 0, i32 8
  store i64 %61, ptr %65, align 8, !tbaa !47
  br label %69

66:                                               ; preds = %36
  %67 = load ptr, ptr %3, align 8, !tbaa !16
  %68 = load i32, ptr %9, align 4, !tbaa !15
  call void (ptr, ptr, ...) @avpriv_request_sample(ptr noundef %67, ptr noundef @.str.3, i32 noundef %68)
  store i32 -1163346256, ptr %2, align 4
  store i32 1, ptr %10, align 4
  br label %86

69:                                               ; preds = %48, %43
  %70 = load ptr, ptr %5, align 8, !tbaa !34
  %71 = load i32, ptr %7, align 4, !tbaa !15
  call void @avpriv_set_pts_info(ptr noundef %70, i32 noundef 64, i32 noundef 1, i32 noundef %71)
  %72 = load ptr, ptr %5, align 8, !tbaa !34
  %73 = getelementptr inbounds nuw %struct.AVStream, ptr %72, i32 0, i32 3
  %74 = load ptr, ptr %73, align 8, !tbaa !36
  %75 = getelementptr inbounds nuw %struct.AVCodecParameters, ptr %74, i32 0, i32 0
  store i32 1, ptr %75, align 8, !tbaa !48
  %76 = load ptr, ptr %5, align 8, !tbaa !34
  %77 = getelementptr inbounds nuw %struct.AVStream, ptr %76, i32 0, i32 3
  %78 = load ptr, ptr %77, align 8, !tbaa !36
  %79 = getelementptr inbounds nuw %struct.AVCodecParameters, ptr %78, i32 0, i32 24
  %80 = load i32, ptr %8, align 4, !tbaa !15
  call void @av_channel_layout_default(ptr noundef %79, i32 noundef %80)
  %81 = load i32, ptr %7, align 4, !tbaa !15
  %82 = load ptr, ptr %5, align 8, !tbaa !34
  %83 = getelementptr inbounds nuw %struct.AVStream, ptr %82, i32 0, i32 3
  %84 = load ptr, ptr %83, align 8, !tbaa !36
  %85 = getelementptr inbounds nuw %struct.AVCodecParameters, ptr %84, i32 0, i32 25
  store i32 %81, ptr %85, align 8, !tbaa !49
  store i32 0, ptr %2, align 4
  store i32 1, ptr %10, align 4
  br label %86

86:                                               ; preds = %69, %66, %41, %35, %18
  call void @llvm.lifetime.end.p0(i64 4, ptr %9) #3
  call void @llvm.lifetime.end.p0(i64 4, ptr %8) #3
  call void @llvm.lifetime.end.p0(i64 4, ptr %7) #3
  call void @llvm.lifetime.end.p0(i64 12, ptr %6) #3
  call void @llvm.lifetime.end.p0(i64 8, ptr %5) #3
  call void @llvm.lifetime.end.p0(i64 8, ptr %4) #3
  %87 = load i32, ptr %2, align 4
  ret i32 %87
}