; Function Attrs: nounwind uwtable
define internal range(i32 -1163346256, 1) i32 @wsaud_read_header(ptr noundef %0) #1 {
  %2 = alloca [12 x i8], align 2
  %3 = getelementptr inbounds nuw i8, ptr %0, i64 32
  %4 = load ptr, ptr %3, align 8, !tbaa !13
  call void @llvm.lifetime.start.p0(i64 12, ptr nonnull %2) #4
  %5 = call i32 @avio_read(ptr noundef %4, ptr noundef nonnull %2, i32 noundef 12) #4
  %.not = icmp eq i32 %5, 12
  br i1 %.not, label %6, label %40

6:                                                ; preds = %1
  %7 = load i16, ptr %2, align 2, !tbaa !12
  %8 = zext i16 %7 to i32
  %9 = getelementptr inbounds nuw i8, ptr %2, i64 10
  %10 = load i8, ptr %9, align 2, !tbaa !12
  %11 = and i8 %10, 1
  %narrow = add nuw nsw i8 %11, 1
  %12 = zext nneg i8 %narrow to i32
  %13 = getelementptr inbounds nuw i8, ptr %2, i64 11
  %14 = load i8, ptr %13, align 1, !tbaa !12
  %15 = zext i8 %14 to i32
  %16 = call ptr @avformat_new_stream(ptr noundef nonnull %0, ptr noundef null) #4
  %.not23 = icmp eq ptr %16, null
  br i1 %.not23, label %40, label %17

17:                                               ; preds = %6
  switch i8 %14, label %33 [
    i8 1, label %18
    i8 99, label %24
  ]

18:                                               ; preds = %17
  %.not24 = icmp eq i8 %11, 0
  br i1 %.not24, label %20, label %19

19:                                               ; preds = %18
  call void (ptr, ptr, ...) @avpriv_request_sample(ptr noundef nonnull %0, ptr noundef nonnull @.str.2) #4
  br label %40

20:                                               ; preds = %18
  %21 = getelementptr inbounds nuw i8, ptr %16, i64 16
  %22 = load ptr, ptr %21, align 8, !tbaa !28
  %23 = getelementptr inbounds nuw i8, ptr %22, i64 4
  store i32 86033, ptr %23, align 4, !tbaa !35
  br label %34

24:                                               ; preds = %17
  %25 = getelementptr inbounds nuw i8, ptr %16, i64 16
  %26 = load ptr, ptr %25, align 8, !tbaa !28
  %27 = getelementptr inbounds nuw i8, ptr %26, i64 4
  store i32 69636, ptr %27, align 4, !tbaa !35
  %28 = getelementptr inbounds nuw i8, ptr %26, i64 56
  store i32 4, ptr %28, align 8, !tbaa !38
  %29 = shl nuw nsw i32 %8, 2
  %30 = mul nuw nsw i32 %29, %12
  %31 = zext nneg i32 %30 to i64
  %32 = getelementptr inbounds nuw i8, ptr %26, i64 48
  store i64 %31, ptr %32, align 8, !tbaa !39
  br label %34

33:                                               ; preds = %17
  call void (ptr, ptr, ...) @avpriv_request_sample(ptr noundef nonnull %0, ptr noundef nonnull @.str.3, i32 noundef %15) #4
  br label %40

34:                                               ; preds = %24, %20
  call void @avpriv_set_pts_info(ptr noundef nonnull %16, i32 noundef 64, i32 noundef 1, i32 noundef %8) #4
  %35 = getelementptr inbounds nuw i8, ptr %16, i64 16
  %36 = load ptr, ptr %35, align 8, !tbaa !28
  store i32 1, ptr %36, align 8, !tbaa !40
  %37 = getelementptr inbounds nuw i8, ptr %36, i64 128
  call void @av_channel_layout_default(ptr noundef nonnull %37, i32 noundef %12) #4
  %38 = load ptr, ptr %35, align 8, !tbaa !28
  %39 = getelementptr inbounds nuw i8, ptr %38, i64 152
  store i32 %8, ptr %39, align 8, !tbaa !41
  br label %40

40:                                               ; preds = %6, %1, %34, %33, %19
  %.0 = phi i32 [ -1163346256, %33 ], [ 0, %34 ], [ -1163346256, %19 ], [ -5, %1 ], [ -12, %6 ]
  call void @llvm.lifetime.end.p0(i64 12, ptr nonnull %2) #4
  ret i32 %.0
}